target datalayout = "e-m:e-p270:32:32-p271:32:32-p272:64:64-i64:64-i128:128-f80:128-n8:16:32:64-S128"
target triple = "x86_64-pc-linux-gnu"

%"class.i18n::phonenumbers::PhoneNumberDescDefaultTypeInternal" = type { %"class.google::protobuf::internal::ExplicitlyConstructed.0" }
%"class.google::protobuf::internal::ExplicitlyConstructed.0" = type { %"union.google::protobuf::internal::ExplicitlyConstructed<i18n::phonenumbers::PhoneNumberDesc>::AlignedUnion" }
%"union.google::protobuf::internal::ExplicitlyConstructed<i18n::phonenumbers::PhoneNumberDesc>::AlignedUnion" = type { i64, [64 x i8] }
%"class.i18n::phonenumbers::PhoneMetadataDefaultTypeInternal" = type { %"class.google::protobuf::internal::ExplicitlyConstructed.1" }
%"class.google::protobuf::internal::ExplicitlyConstructed.1" = type { %"union.google::protobuf::internal::ExplicitlyConstructed<i18n::phonenumbers::PhoneMetadata>::AlignedUnion" }
%"union.google::protobuf::internal::ExplicitlyConstructed<i18n::phonenumbers::PhoneMetadata>::AlignedUnion" = type { i64, [272 x i8] }
%"class.google::protobuf::MessageLite" = type { ptr, %"class.google::protobuf::internal::InternalMetadata" }
%"class.google::protobuf::internal::InternalMetadata" = type { ptr }
%"class.google::protobuf::internal::HasBits" = type { [1 x i32] }
%"class.google::protobuf::internal::CachedSize" = type { %"struct.std::atomic" }
%"struct.std::atomic" = type { %"struct.std::__atomic_base" }
%"struct.std::__atomic_base" = type { i32 }
%"class.google::protobuf::internal::RepeatedPtrFieldBase" = type { ptr, i32, i32, ptr }
%"struct.google::protobuf::internal::ArenaStringPtr" = type { ptr }
%"class.i18n::phonenumbers::PhoneMetadata" = type <{ %"class.google::protobuf::MessageLite", %"class.google::protobuf::internal::HasBits", %"class.google::protobuf::internal::CachedSize", %"class.google::protobuf::RepeatedPtrField.5", %"class.google::protobuf::RepeatedPtrField.5", %"struct.google::protobuf::internal::ArenaStringPtr", %"struct.google::protobuf::internal::ArenaStringPtr", %"struct.google::protobuf::internal::ArenaStringPtr", %"struct.google::protobuf::internal::ArenaStringPtr", %"struct.google::protobuf::internal::ArenaStringPtr", %"struct.google::protobuf::internal::ArenaStringPtr", %"struct.google::protobuf::internal::ArenaStringPtr", %"struct.google::protobuf::internal::ArenaStringPtr", ptr, ptr, ptr, ptr, ptr, ptr, ptr, ptr, ptr, ptr, ptr, ptr, ptr, ptr, ptr, ptr, ptr, i32, i8, i8, i8, i8 }>
%"class.google::protobuf::RepeatedPtrField.5" = type { %"class.google::protobuf::internal::RepeatedPtrFieldBase" }

@_ZN4i18n12phonenumbers34_PhoneNumberDesc_default_instance_E = dso_local global %"class.i18n::phonenumbers::PhoneNumberDescDefaultTypeInternal" zeroinitializer, align 8
@_ZN4i18n12phonenumbers32_PhoneMetadata_default_instance_E = dso_local global %"class.i18n::phonenumbers::PhoneMetadataDefaultTypeInternal" zeroinitializer, align 8
@.str = private unnamed_addr constant [148 x i8] c"generated/home/dtcxzyw/WorkSpace/Projects/compilers/llvm-opt-benchmark/bench/libphonenumber/libphonenumber/cpp/src/phonenumbers/phonemetadata.pb.cc\00", align 1

; Function Attrs: mustprogress nounwind uwtable
define linkonce_odr dso_local noundef ptr @_ZN6google8protobuf8internal21ExplicitlyConstructedIN4i18n12phonenumbers13PhoneMetadataEE11get_mutableEv(ptr noundef nonnull align 8 dereferenceable(280) %0) #5 comdat align 2 {
  %2 = alloca ptr, align 8
  store ptr %0, ptr %2, align 8
  %3 = load ptr, ptr %2, align 8
  %4 = getelementptr inbounds %"class.google::protobuf::internal::ExplicitlyConstructed.1", ptr %3, i32 0, i32 0
  ret ptr %4
}

; Function Attrs: mustprogress nounwind uwtable
define linkonce_odr dso_local noundef ptr @_ZN4i18n12phonenumbers15PhoneNumberDesc25internal_default_instanceEv() #5 comdat align 2 {
  ret ptr @_ZN4i18n12phonenumbers34_PhoneNumberDesc_default_instance_E
}

; Function Attrs: mustprogress uwtable
define dso_local void @_ZN4i18n12phonenumbers13PhoneMetadata21InitAsDefaultInstanceEv() #4 align 2 {
  %1 = call noundef ptr @_ZN4i18n12phonenumbers15PhoneNumberDesc25internal_default_instanceEv()
  %2 = call noundef ptr @_ZN6google8protobuf8internal21ExplicitlyConstructedIN4i18n12phonenumbers13PhoneMetadataEE11get_mutableEv(ptr noundef nonnull align 8 dereferenceable(280) @_ZN4i18n12phonenumbers32_PhoneMetadata_default_instance_E)
  %3 = getelementptr inbounds %"class.i18n::phonenumbers::PhoneMetadata", ptr %2, i32 0, i32 13
  store ptr %1, ptr %3, align 8
  %4 = call noundef ptr @_ZN4i18n12phonenumbers15PhoneNumberDesc25internal_default_instanceEv()
  %5 = call noundef ptr @_ZN6google8protobuf8internal21ExplicitlyConstructedIN4i18n12phonenumbers13PhoneMetadataEE11get_mutableEv(ptr noundef nonnull align 8 dereferenceable(280) @_ZN4i18n12phonenumbers32_PhoneMetadata_default_instance_E)
  %6 = getelementptr inbounds %"class.i18n::phonenumbers::PhoneMetadata", ptr %5, i32 0, i32 14
  store ptr %4, ptr %6, align 8
  %7 = call noundef ptr @_ZN4i18n12phonenumbers15PhoneNumberDesc25internal_default_instanceEv()
  %8 = call noundef ptr @_ZN6google8protobuf8internal21ExplicitlyConstructedIN4i18n12phonenumbers13PhoneMetadataEE11get_mutableEv(ptr noundef nonnull align 8 dereferenceable(280) @_ZN4i18n12phonenumbers32_PhoneMetadata_default_instance_E)
  %9 = getelementptr inbounds %"class.i18n::phonenumbers::PhoneMetadata", ptr %8, i32 0, i32 15
  store ptr %7, ptr %9, align 8
  %10 = call noundef ptr @_ZN4i18n12phonenumbers15PhoneNumberDesc25internal_default_instanceEv()
  %11 = call noundef ptr @_ZN6google8protobuf8internal21ExplicitlyConstructedIN4i18n12phonenumbers13PhoneMetadataEE11get_mutableEv(ptr noundef nonnull align 8 dereferenceable(280) @_ZN4i18n12phonenumbers32_PhoneMetadata_default_instance_E)
  %12 = getelementptr inbounds %"class.i18n::phonenumbers::PhoneMetadata", ptr %11, i32 0, i32 16
  store ptr %10, ptr %12, align 8
  %13 = call noundef ptr @_ZN4i18n12phonenumbers15PhoneNumberDesc25internal_default_instanceEv()
  %14 = call noundef ptr @_ZN6google8protobuf8internal21ExplicitlyConstructedIN4i18n12phonenumbers13PhoneMetadataEE11get_mutableEv(ptr noundef nonnull align 8 dereferenceable(280) @_ZN4i18n12phonenumbers32_PhoneMetadata_default_instance_E)
  %15 = getelementptr inbounds %"class.i18n::phonenumbers::PhoneMetadata", ptr %14, i32 0, i32 17
  store ptr %13, ptr %15, align 8
  %16 = call noundef ptr @_ZN4i18n12phonenumbers15PhoneNumberDesc25internal_default_instanceEv()
  %17 = call noundef ptr @_ZN6google8protobuf8internal21ExplicitlyConstructedIN4i18n12phonenumbers13PhoneMetadataEE11get_mutableEv(ptr noundef nonnull align 8 dereferenceable(280) @_ZN4i18n12phonenumbers32_PhoneMetadata_default_instance_E)
  %18 = getelementptr inbounds %"class.i18n::phonenumbers::PhoneMetadata", ptr %17, i32 0, i32 18
  store ptr %16, ptr %18, align 8
  %19 = call noundef ptr @_ZN4i18n12phonenumbers15PhoneNumberDesc25internal_default_instanceEv()
  %20 = call noundef ptr @_ZN6google8protobuf8internal21ExplicitlyConstructedIN4i18n12phonenumbers13PhoneMetadataEE11get_mutableEv(ptr noundef nonnull align 8 dereferenceable(280) @_ZN4i18n12phonenumbers32_PhoneMetadata_default_instance_E)
  %21 = getelementptr inbounds %"class.i18n::phonenumbers::PhoneMetadata", ptr %20, i32 0, i32 19
  store ptr %19, ptr %21, align 8
  %22 = call noundef ptr @_ZN4i18n12phonenumbers15PhoneNumberDesc25internal_default_instanceEv()
  %23 = call noundef ptr @_ZN6google8protobuf8internal21ExplicitlyConstructedIN4i18n12phonenumbers13PhoneMetadataEE11get_mutableEv(ptr noundef nonnull align 8 dereferenceable(280) @_ZN4i18n12phonenumbers32_PhoneMetadata_default_instance_E)
  %24 = getelementptr inbounds %"class.i18n::phonenumbers::PhoneMetadata", ptr %23, i32 0, i32 20
  store ptr %22, ptr %24, align 8
  %25 = call noundef ptr @_ZN4i18n12phonenumbers15PhoneNumberDesc25internal_default_instanceEv()
  %26 = call noundef ptr @_ZN6google8protobuf8internal21ExplicitlyConstructedIN4i18n12phonenumbers13PhoneMetadataEE11get_mutableEv(ptr noundef nonnull align 8 dereferenceable(280) @_ZN4i18n12phonenumbers32_PhoneMetadata_default_instance_E)
  %27 = getelementptr inbounds %"class.i18n::phonenumbers::PhoneMetadata", ptr %26, i32 0, i32 21
  store ptr %25, ptr %27, align 8
  %28 = call noundef ptr @_ZN4i18n12phonenumbers15PhoneNumberDesc25internal_default_instanceEv()
  %29 = call noundef ptr @_ZN6google8protobuf8internal21ExplicitlyConstructedIN4i18n12phonenumbers13PhoneMetadataEE11get_mutableEv(ptr noundef nonnull align 8 dereferenceable(280) @_ZN4i18n12phonenumbers32_PhoneMetadata_default_instance_E)
  %30 = getelementptr inbounds %"class.i18n::phonenumbers::PhoneMetadata", ptr %29, i32 0, i32 23
  store ptr %28, ptr %30, align 8
  %31 = call noundef ptr @_ZN4i18n12phonenumbers15PhoneNumberDesc25internal_default_instanceEv()
  %32 = call noundef ptr @_ZN6google8protobuf8internal21ExplicitlyConstructedIN4i18n12phonenumbers13PhoneMetadataEE11get_mutableEv(ptr noundef nonnull align 8 dereferenceable(280) @_ZN4i18n12phonenumbers32_PhoneMetadata_default_instance_E)
  %33 = getelementptr inbounds %"class.i18n::phonenumbers::PhoneMetadata", ptr %32, i32 0, i32 24
  store ptr %31, ptr %33, align 8
  %34 = call noundef ptr @_ZN4i18n12phonenumbers15PhoneNumberDesc25internal_default_instanceEv()
  %35 = call noundef ptr @_ZN6google8protobuf8internal21ExplicitlyConstructedIN4i18n12phonenumbers13PhoneMetadataEE11get_mutableEv(ptr noundef nonnull align 8 dereferenceable(280) @_ZN4i18n12phonenumbers32_PhoneMetadata_default_instance_E)
  %36 = getelementptr inbounds %"class.i18n::phonenumbers::PhoneMetadata", ptr %35, i32 0, i32 25
  store ptr %34, ptr %36, align 8
  %37 = call noundef ptr @_ZN4i18n12phonenumbers15PhoneNumberDesc25internal_default_instanceEv()
  %38 = call noundef ptr @_ZN6google8protobuf8internal21ExplicitlyConstructedIN4i18n12phonenumbers13PhoneMetadataEE11get_mutableEv(ptr noundef nonnull align 8 dereferenceable(280) @_ZN4i18n12phonenumbers32_PhoneMetadata_default_instance_E)
  %39 = getelementptr inbounds %"class.i18n::phonenumbers::PhoneMetadata", ptr %38, i32 0, i32 26
  store ptr %37, ptr %39, align 8
  %40 = call noundef ptr @_ZN4i18n12phonenumbers15PhoneNumberDesc25internal_default_instanceEv()
  %41 = call noundef ptr @_ZN6google8protobuf8internal21ExplicitlyConstructedIN4i18n12phonenumbers13PhoneMetadataEE11get_mutableEv(ptr noundef nonnull align 8 dereferenceable(280) @_ZN4i18n12phonenumbers32_PhoneMetadata_default_instance_E)
  %42 = getelementptr inbounds %"class.i18n::phonenumbers::PhoneMetadata", ptr %41, i32 0, i32 27
  store ptr %40, ptr %42, align 8
  %43 = call noundef ptr @_ZN4i18n12phonenumbers15PhoneNumberDesc25internal_default_instanceEv()
  %44 = call noundef ptr @_ZN6google8protobuf8internal21ExplicitlyConstructedIN4i18n12phonenumbers13PhoneMetadataEE11get_mutableEv(ptr noundef nonnull align 8 dereferenceable(280) @_ZN4i18n12phonenumbers32_PhoneMetadata_default_instance_E)
  %45 = getelementptr inbounds %"class.i18n::phonenumbers::PhoneMetadata", ptr %44, i32 0, i32 28
  store ptr %43, ptr %45, align 8
  %46 = call noundef ptr @_ZN4i18n12phonenumbers15PhoneNumberDesc25internal_default_instanceEv()
  %47 = call noundef ptr @_ZN6google8protobuf8internal21ExplicitlyConstructedIN4i18n12phonenumbers13PhoneMetadataEE11get_mutableEv(ptr noundef nonnull align 8 dereferenceable(280) @_ZN4i18n12phonenumbers32_PhoneMetadata_default_instance_E)
  %48 = getelementptr inbounds %"class.i18n::phonenumbers::PhoneMetadata", ptr %47, i32 0, i32 29
  store ptr %46, ptr %48, align 8
  %49 = call noundef ptr @_ZN4i18n12phonenumbers15PhoneNumberDesc25internal_default_instanceEv()
  %50 = call noundef ptr @_ZN6google8protobuf8internal21ExplicitlyConstructedIN4i18n12phonenumbers13PhoneMetadataEE11get_mutableEv(ptr noundef nonnull align 8 dereferenceable(280) @_ZN4i18n12phonenumbers32_PhoneMetadata_default_instance_E)
  %51 = getelementptr inbounds %"class.i18n::phonenumbers::PhoneMetadata", ptr %50, i32 0, i32 22
  store ptr %49, ptr %51, align 8
  ret void
}

; Function Attrs: mustprogress uwtable
define linkonce_odr dso_local void @_ZN6google8protobuf8internal24OnShutdownDestroyMessageEPKv(ptr noundef %0) #4 comdat {
  %2 = alloca ptr, align 8
  store ptr %0, ptr %2, align 8
  %3 = load ptr, ptr %2, align 8
  call void @_ZN6google8protobuf8internal13OnShutdownRunEPFvPKvES3_(ptr noundef @_ZN6google8protobuf8internal14DestroyMessageEPKv, ptr noundef %3)
  ret void
}

; Function Attrs: mustprogress uwtable
define linkonce_odr dso_local void @_ZN4i18n12phonenumbers13PhoneMetadataC2Ev(ptr noundef nonnull align 8 dereferenceable(280) %0) unnamed_addr #4 comdat align 2 {
  %2 = alloca ptr, align 8
  store ptr %0, ptr %2, align 8
  %3 = load ptr, ptr %2, align 8
  call void @_ZN4i18n12phonenumbers13PhoneMetadataC2EPN6google8protobuf5ArenaE(ptr noundef nonnull align 8 dereferenceable(280) %3, ptr noundef null)
  ret void
}

; Function Attrs: mustprogress uwtable
define internal void @_ZL56InitDefaultsscc_info_PhoneMetadata_phonemetadata_2eprotov() #4 {
  %1 = alloca ptr, align 8
  call void @_ZN6google8protobuf8internal13VerifyVersionEiiPKc(i32 noundef 3012004, i32 noundef 3012000, ptr noundef @.str)
  store ptr @_ZN4i18n12phonenumbers32_PhoneMetadata_default_instance_E, ptr %1, align 8
  %2 = load ptr, ptr %1, align 8
  call void @_ZN4i18n12phonenumbers13PhoneMetadataC2Ev(ptr noundef nonnull align 8 dereferenceable(280) %2)
  %3 = load ptr, ptr %1, align 8
  call void @_ZN6google8protobuf8internal24OnShutdownDestroyMessageEPKv(ptr noundef %3)
  call void @_ZN4i18n12phonenumbers13PhoneMetadata21InitAsDefaultInstanceEv()
  ret void
}