; Function Attrs: mustprogress uwtable
define internal void @_ZL56InitDefaultsscc_info_PhoneMetadata_phonemetadata_2eprotov() #3 {
  tail call void @_ZN6google8protobuf8internal13VerifyVersionEiiPKc(i32 noundef 3012004, i32 noundef 3012000, ptr noundef nonnull @.str)
  tail call void @_ZN4i18n12phonenumbers13PhoneMetadataC2EPN6google8protobuf5ArenaE(ptr noundef nonnull align 8 dereferenceable(280) @_ZN4i18n12phonenumbers32_PhoneMetadata_default_instance_E, ptr noundef null)
  tail call void @_ZN6google8protobuf8internal13OnShutdownRunEPFvPKvES3_(ptr noundef nonnull @_ZN6google8protobuf8internal14DestroyMessageEPKv, ptr noundef nonnull @_ZN4i18n12phonenumbers32_PhoneMetadata_default_instance_E)
  store ptr @_ZN4i18n12phonenumbers34_PhoneNumberDesc_default_instance_E, ptr getelementptr inbounds (%"class.i18n::phonenumbers::PhoneMetadataDefaultTypeInternal", ptr @_ZN4i18n12phonenumbers32_PhoneMetadata_default_instance_E, i64 0, i32 0, i32 0, i32 1, i64 128), align 8
  store ptr @_ZN4i18n12phonenumbers34_PhoneNumberDesc_default_instance_E, ptr getelementptr inbounds (%"class.i18n::phonenumbers::PhoneMetadataDefaultTypeInternal", ptr @_ZN4i18n12phonenumbers32_PhoneMetadata_default_instance_E, i64 0, i32 0, i32 0, i32 1, i64 136), align 8
  store ptr @_ZN4i18n12phonenumbers34_PhoneNumberDesc_default_instance_E, ptr getelementptr inbounds (%"class.i18n::phonenumbers::PhoneMetadataDefaultTypeInternal", ptr @_ZN4i18n12phonenumbers32_PhoneMetadata_default_instance_E, i64 0, i32 0, i32 0, i32 1, i64 144), align 8
  store ptr @_ZN4i18n12phonenumbers34_PhoneNumberDesc_default_instance_E, ptr getelementptr inbounds (%"class.i18n::phonenumbers::PhoneMetadataDefaultTypeInternal", ptr @_ZN4i18n12phonenumbers32_PhoneMetadata_default_instance_E, i64 0, i32 0, i32 0, i32 1, i64 152), align 8
  store ptr @_ZN4i18n12phonenumbers34_PhoneNumberDesc_default_instance_E, ptr getelementptr inbounds (%"class.i18n::phonenumbers::PhoneMetadataDefaultTypeInternal", ptr @_ZN4i18n12phonenumbers32_PhoneMetadata_default_instance_E, i64 0, i32 0, i32 0, i32 1, i64 160), align 8
  store ptr @_ZN4i18n12phonenumbers34_PhoneNumberDesc_default_instance_E, ptr getelementptr inbounds (%"class.i18n::phonenumbers::PhoneMetadataDefaultTypeInternal", ptr @_ZN4i18n12phonenumbers32_PhoneMetadata_default_instance_E, i64 0, i32 0, i32 0, i32 1, i64 168), align 8
  store ptr @_ZN4i18n12phonenumbers34_PhoneNumberDesc_default_instance_E, ptr getelementptr inbounds (%"class.i18n::phonenumbers::PhoneMetadataDefaultTypeInternal", ptr @_ZN4i18n12phonenumbers32_PhoneMetadata_default_instance_E, i64 0, i32 0, i32 0, i32 1, i64 176), align 8
  store ptr @_ZN4i18n12phonenumbers34_PhoneNumberDesc_default_instance_E, ptr getelementptr inbounds (%"class.i18n::phonenumbers::PhoneMetadataDefaultTypeInternal", ptr @_ZN4i18n12phonenumbers32_PhoneMetadata_default_instance_E, i64 0, i32 0, i32 0, i32 1, i64 184), align 8
  store ptr @_ZN4i18n12phonenumbers34_PhoneNumberDesc_default_instance_E, ptr getelementptr inbounds (%"class.i18n::phonenumbers::PhoneMetadataDefaultTypeInternal", ptr @_ZN4i18n12phonenumbers32_PhoneMetadata_default_instance_E, i64 0, i32 0, i32 0, i32 1, i64 192), align 8
  store ptr @_ZN4i18n12phonenumbers34_PhoneNumberDesc_default_instance_E, ptr getelementptr inbounds (%"class.i18n::phonenumbers::PhoneMetadataDefaultTypeInternal", ptr @_ZN4i18n12phonenumbers32_PhoneMetadata_default_instance_E, i64 0, i32 0, i32 0, i32 1, i64 208), align 8
  store ptr @_ZN4i18n12phonenumbers34_PhoneNumberDesc_default_instance_E, ptr getelementptr inbounds (%"class.i18n::phonenumbers::PhoneMetadataDefaultTypeInternal", ptr @_ZN4i18n12phonenumbers32_PhoneMetadata_default_instance_E, i64 0, i32 0, i32 0, i32 1, i64 216), align 8
  store ptr @_ZN4i18n12phonenumbers34_PhoneNumberDesc_default_instance_E, ptr getelementptr inbounds (%"class.i18n::phonenumbers::PhoneMetadataDefaultTypeInternal", ptr @_ZN4i18n12phonenumbers32_PhoneMetadata_default_instance_E, i64 0, i32 0, i32 0, i32 1, i64 224), align 8
  store ptr @_ZN4i18n12phonenumbers34_PhoneNumberDesc_default_instance_E, ptr getelementptr inbounds (%"class.i18n::phonenumbers::PhoneMetadataDefaultTypeInternal", ptr @_ZN4i18n12phonenumbers32_PhoneMetadata_default_instance_E, i64 0, i32 0, i32 0, i32 1, i64 232), align 8
  store ptr @_ZN4i18n12phonenumbers34_PhoneNumberDesc_default_instance_E, ptr getelementptr inbounds (%"class.i18n::phonenumbers::PhoneMetadataDefaultTypeInternal", ptr @_ZN4i18n12phonenumbers32_PhoneMetadata_default_instance_E, i64 0, i32 0, i32 0, i32 1, i64 240), align 8
  store ptr @_ZN4i18n12phonenumbers34_PhoneNumberDesc_default_instance_E, ptr getelementptr inbounds (%"class.i18n::phonenumbers::PhoneMetadataDefaultTypeInternal", ptr @_ZN4i18n12phonenumbers32_PhoneMetadata_default_instance_E, i64 0, i32 0, i32 0, i32 1, i64 248), align 8
  store ptr @_ZN4i18n12phonenumbers34_PhoneNumberDesc_default_instance_E, ptr getelementptr inbounds (%"class.i18n::phonenumbers::PhoneMetadataDefaultTypeInternal", ptr @_ZN4i18n12phonenumbers32_PhoneMetadata_default_instance_E, i64 0, i32 0, i32 0, i32 1, i64 256), align 8
  store ptr @_ZN4i18n12phonenumbers34_PhoneNumberDesc_default_instance_E, ptr getelementptr inbounds (%"class.i18n::phonenumbers::PhoneMetadataDefaultTypeInternal", ptr @_ZN4i18n12phonenumbers32_PhoneMetadata_default_instance_E, i64 0, i32 0, i32 0, i32 1, i64 200), align 8
  ret void
}